; Function Attrs: nounwind sspstrong uwtable
define hidden i64 @rb_rational_canonicalize(i64 noundef %0) local_unnamed_addr #0 {
  %2 = icmp eq i64 %0, 0
  %3 = and i64 %0, 7
  %4 = icmp ne i64 %3, 0
  %5 = or i1 %2, %4
  br i1 %5, label %rbimpl_RB_TYPE_P_fastpath.exit.thread, label %rbimpl_RB_TYPE_P_fastpath.exit

rbimpl_RB_TYPE_P_fastpath.exit:                   ; preds = %1
  %6 = inttoptr i64 %0 to ptr
  %7 = load i64, ptr %6, align 8, !tbaa !7
  %8 = and i64 %7, 31
  %9 = icmp eq i64 %8, 15
  br i1 %9, label %10, label %rbimpl_RB_TYPE_P_fastpath.exit.thread

10:                                               ; preds = %rbimpl_RB_TYPE_P_fastpath.exit
  %11 = getelementptr inbounds nuw i8, ptr %6, i64 24
  %12 = load i64, ptr %11, align 8, !tbaa !21
  %13 = and i64 %12, 1
  %.not.i.i = icmp eq i64 %13, 0
  br i1 %.not.i.i, label %14, label %rb_integer_type_p.exit.thread.i

14:                                               ; preds = %10
  %15 = icmp eq i64 %12, 0
  %16 = and i64 %12, 6
  %17 = icmp ne i64 %16, 0
  %18 = or i1 %15, %17
  br i1 %18, label %rbimpl_RB_TYPE_P_fastpath.exit.thread.i, label %rb_integer_type_p.exit.i

rb_integer_type_p.exit.i:                         ; preds = %14
  %19 = inttoptr i64 %12 to ptr
  %20 = load i64, ptr %19, align 8, !tbaa !7
  %21 = and i64 %20, 31
  switch i64 %21, label %rbimpl_RB_TYPE_P_fastpath.exit.thread.i [
    i64 10, label %rb_integer_type_p.exit.thread.i
    i64 15, label %22
  ]

rb_integer_type_p.exit.thread.i:                  ; preds = %rb_integer_type_p.exit.i, %10
  %.not15 = icmp eq i64 %12, 3
  br i1 %.not15, label %31, label %rbimpl_RB_TYPE_P_fastpath.exit.thread

22:                                               ; preds = %rb_integer_type_p.exit.i
  %23 = getelementptr inbounds nuw i8, ptr %19, i64 16
  %24 = load i64, ptr %23, align 8, !tbaa !19
  %25 = icmp eq i64 %24, 3
  br i1 %25, label %f_one_p.exit, label %rbimpl_RB_TYPE_P_fastpath.exit.thread

rbimpl_RB_TYPE_P_fastpath.exit.thread.i:          ; preds = %rb_integer_type_p.exit.i, %14
  %26 = tail call i64 @rb_equal(i64 noundef %12, i64 noundef 3) #17
  %27 = and i64 %26, 4294967295
  %28 = icmp eq i64 %27, 0
  br i1 %28, label %rbimpl_RB_TYPE_P_fastpath.exit.thread, label %31

f_one_p.exit:                                     ; preds = %22
  %29 = getelementptr inbounds nuw i8, ptr %19, i64 24
  %30 = load i64, ptr %29, align 8, !tbaa !21
  %.not = icmp eq i64 %30, 3
  br i1 %.not, label %31, label %rbimpl_RB_TYPE_P_fastpath.exit.thread

31:                                               ; preds = %rbimpl_RB_TYPE_P_fastpath.exit.thread.i, %rb_integer_type_p.exit.thread.i, %f_one_p.exit
  %32 = getelementptr inbounds nuw i8, ptr %6, i64 16
  %33 = load i64, ptr %32, align 8, !tbaa !19
  br label %rbimpl_RB_TYPE_P_fastpath.exit.thread

rbimpl_RB_TYPE_P_fastpath.exit.thread:            ; preds = %rbimpl_RB_TYPE_P_fastpath.exit.thread.i, %rb_integer_type_p.exit.thread.i, %22, %f_one_p.exit, %1, %rbimpl_RB_TYPE_P_fastpath.exit, %31
  %.1 = phi i64 [ %33, %31 ], [ %0, %rbimpl_RB_TYPE_P_fastpath.exit ], [ %0, %1 ], [ %0, %f_one_p.exit ], [ %0, %22 ], [ %0, %rb_integer_type_p.exit.thread.i ], [ %0, %rbimpl_RB_TYPE_P_fastpath.exit.thread.i ]
  ret i64 %.1
}